; Function Attrs: nofree norecurse nosync nounwind memory(readwrite, inaccessiblemem: none) uwtable
define void @Hop_ObjCreateChoice(ptr noundef %0, ptr noundef %1) local_unnamed_addr #3 {
  br label %tailrecurse.i

tailrecurse.i:                                    ; preds = %tailrecurse.i, %2
  %.tr.i = phi ptr [ %0, %2 ], [ %3, %tailrecurse.i ]
  %3 = load ptr, ptr %.tr.i, align 8
  %4 = icmp eq ptr %3, null
  %5 = icmp eq ptr %3, %.tr.i
  %or.cond.i = or i1 %4, %5
  br i1 %or.cond.i, label %tailrecurse.i7, label %tailrecurse.i

tailrecurse.i7:                                   ; preds = %tailrecurse.i, %tailrecurse.i7
  %.tr.i8 = phi ptr [ %6, %tailrecurse.i7 ], [ %1, %tailrecurse.i ]
  %6 = load ptr, ptr %.tr.i8, align 8
  %7 = icmp eq ptr %6, null
  %8 = icmp eq ptr %6, %.tr.i8
  %or.cond.i9 = or i1 %7, %8
  br i1 %or.cond.i9, label %Hop_ObjRepr.exit10, label %tailrecurse.i7

Hop_ObjRepr.exit10:                               ; preds = %tailrecurse.i7
  %.not = icmp eq ptr %.tr.i8, %.tr.i
  br i1 %.not, label %10, label %9

9:                                                ; preds = %Hop_ObjRepr.exit10
  store ptr %.tr.i, ptr %.tr.i8, align 8
  br label %10

10:                                               ; preds = %9, %Hop_ObjRepr.exit10
  ret void
}